target datalayout = "e-m:e-p270:32:32-p271:32:32-p272:64:64-i64:64-i128:128-f80:128-n8:16:32:64-S128"
target triple = "x86_64-pc-linux-gnu"

%struct.JsonPathItem = type { i32, i32, ptr, %union.anon }
%union.anon = type { %struct.anon.5 }
%struct.anon.5 = type { i32, ptr, i32, i32 }

; Function Attrs: nounwind uwtable
define dso_local zeroext i1 @jspGetNext(ptr noundef %0, ptr noundef %1) #0 {
  %3 = alloca i1, align 1
  %4 = alloca ptr, align 8
  %5 = alloca ptr, align 8
  store ptr %0, ptr %4, align 8
  store ptr %1, ptr %5, align 8
  %6 = load ptr, ptr %4, align 8
  %7 = getelementptr inbounds nuw %struct.JsonPathItem, ptr %6, i32 0, i32 1
  %8 = load i32, ptr %7, align 4
  %9 = icmp sgt i32 %8, 0
  br i1 %9, label %10, label %22

10:                                               ; preds = %2
  %11 = load ptr, ptr %5, align 8
  %12 = icmp ne ptr %11, null
  br i1 %12, label %13, label %21

13:                                               ; preds = %10
  %14 = load ptr, ptr %5, align 8
  %15 = load ptr, ptr %4, align 8
  %16 = getelementptr inbounds nuw %struct.JsonPathItem, ptr %15, i32 0, i32 2
  %17 = load ptr, ptr %16, align 8
  %18 = load ptr, ptr %4, align 8
  %19 = getelementptr inbounds nuw %struct.JsonPathItem, ptr %18, i32 0, i32 1
  %20 = load i32, ptr %19, align 4
  call void @jspInitByBuffer(ptr noundef %14, ptr noundef %17, i32 noundef %20)
  br label %21

21:                                               ; preds = %13, %10
  store i1 true, ptr %3, align 1
  br label %23

22:                                               ; preds = %2
  store i1 false, ptr %3, align 1
  br label %23

23:                                               ; preds = %22, %21
  %24 = load i1, ptr %3, align 1
  ret i1 %24
}