; Function Attrs: nounwind uwtable
define dso_local zeroext i1 @jspGetNext(ptr noundef readonly captures(none) %0, ptr noundef captures(address_is_null) %1) local_unnamed_addr #0 {
  %3 = getelementptr inbounds nuw i8, ptr %0, i64 4
  %4 = load i32, ptr %3, align 4
  %5 = icmp sgt i32 %4, 0
  %.not = icmp ne ptr %1, null
  %or.cond.not = and i1 %.not, %5
  br i1 %or.cond.not, label %6, label %9

6:                                                ; preds = %2
  %7 = getelementptr inbounds nuw i8, ptr %0, i64 8
  %8 = load ptr, ptr %7, align 8
  tail call void @jspInitByBuffer(ptr noundef nonnull %1, ptr noundef %8, i32 noundef %4)
  br label %9

9:                                                ; preds = %2, %6
  ret i1 %5
}